(dp0
S'nro_cuenta'
p1
I1
sS'saldo'
p2
I7094
sS'moneda'
p3
S'$'
p4
sS'titular'
p5
S'cliente_1'
p6
sS'tipo_cuenta'
p7
S'debito'
p8
s.(dp0
S'nro_cuenta'
p1
I2
sS'saldo'
p2
I2896
sS'moneda'
p3
S'$'
p4
sS'titular'
p5
S'cliente_2'
p6
sS'tipo_cuenta'
p7
S'debito'
p8
s.(dp0
S'nro_cuenta'
p1
I3
sS'saldo'
p2
I14424
sS'moneda'
p3
S'$'
p4
sS'titular'
p5
S'cliente_3'
p6
sS'tipo_cuenta'
p7
S'corriente'
p8
s.(dp0
S'nro_cuenta'
p1
I5
sS'saldo'
p2
I7156
sS'moneda'
p3
S'$'
p4
sS'titular'
p5
S'cliente_5'
p6
sS'tipo_cuenta'
p7
S'corriente'
p8
s.(dp0
S'nro_cuenta'
p1
I8
sS'saldo'
p2
I7500
sS'moneda'
p3
S'$'
p4
sS'titular'
p5
S'cliente_8'
p6
sS'tipo_cuenta'
p7
S'corriente'
p8
s.(dp0
S'nro_cuenta'
p1
I9
sS'saldo'
p2
I2128
sS'moneda'
p3
S'$'
p4
sS'titular'
p5
S'cliente_9'
p6
sS'tipo_cuenta'
p7
S'debito'
p8
s.(dp0
S'nro_cuenta'
p1
I13
sS'saldo'
p2
I13524
sS'moneda'
p3
S'$'
p4
sS'titular'
p5
S'cliente_13'
p6
sS'tipo_cuenta'
p7
S'corriente'
p8
s.(dp0
S'nro_cuenta'
p1
I15
sS'saldo'
p2
I9479
sS'moneda'
p3
S'$'
p4
sS'titular'
p5
S'cliente_15'
p6
sS'tipo_cuenta'
p7
S'debito'
p8
s.(dp0
S'nro_cuenta'
p1
I21
sS'saldo'
p2
I8462
sS'moneda'
p3
S'$'
p4
sS'titular'
p5
S'cliente_21'
p6
sS'tipo_cuenta'
p7
S'debito'
p8
s.(dp0
S'nro_cuenta'
p1
I25
sS'saldo'
p2
I6258
sS'moneda'
p3
S'$'
p4
sS'titular'
p5
S'cliente_25'
p6
sS'tipo_cuenta'
p7
S'debito'
p8
s.(dp0
S'nro_cuenta'
p1
I32
sS'saldo'
p2
I14082
sS'moneda'
p3
S'$'
p4
sS'titular'
p5
S'cliente_32'
p6
sS'tipo_cuenta'
p7
S'debito'
p8
s.