(dp0
S'nombre'
p1
S'Sanchez, Lucas'
p2
sS'grupo'
p3
I1
sS'nota'
p4
I8
sS'padron'
p5
I90431
s.(dp0
S'nombre'
p1
S'Alvarez, Javier'
p2
sS'grupo'
p3
I1
sS'nota'
p4
I2
sS'padron'
p5
I92953
s.(dp0
S'nombre'
p1
S'Perez, Matias'
p2
sS'grupo'
p3
I1
sS'nota'
p4
I10
sS'padron'
p5
I92407
s.(dp0
S'nombre'
p1
S'Lopez, Pablo'
p2
sS'grupo'
p3
I2
sS'nota'
p4
I9
sS'padron'
p5
I96556
s.(dp0
S'nombre'
p1
S'Gonzalez, Marcelo'
p2
sS'grupo'
p3
I2
sS'nota'
p4
I7
sS'padron'
p5
I92143
s.(dp0
S'nombre'
p1
S'Rodriguez, Pablo'
p2
sS'grupo'
p3
I2
sS'nota'
p4
I9
sS'padron'
p5
I92431
s.(dp0
S'nombre'
p1
S'Gomez, Matias'
p2
sS'grupo'
p3
I3
sS'nota'
p4
I4
sS'padron'
p5
I98306
s.(dp0
S'nombre'
p1
S'Diaz, Juan'
p2
sS'grupo'
p3
I3
sS'nota'
p4
I8
sS'padron'
p5
I97972
s.(dp0
S'nombre'
p1
S'Garcia, Matias'
p2
sS'grupo'
p3
I4
sS'nota'
p4
I2
sS'padron'
p5
I93108
s.(dp0
S'nombre'
p1
S'Rodriguez, Agustin'
p2
sS'grupo'
p3
I5
sS'nota'
p4
I5
sS'padron'
p5
I96739
s.