(dp0
S'nro_cuenta'
p1
I1
sS'tipo'
p2
S'B'
p3
s.(dp0
S'nro_cuenta'
p1
I2
sS'monto'
p2
I731
sS'tipo_movimiento'
p3
S'debito'
p4
sS'tipo'
p5
S'M'
p6
s.(dp0
S'nro_cuenta'
p1
I3
sS'monto'
p2
I791
sS'tipo_movimiento'
p3
S'debito'
p4
sS'tipo'
p5
S'M'
p6
s.(dp0
S'nro_cuenta'
p1
I4
sS'moneda'
p2
S'$'
p3
sS'titular'
p4
S'cliente_4'
p5
sS'tipo_cuenta'
p6
S'corriente'
p7
sS'tipo'
p8
S'A'
p9
s.(dp0
S'nro_cuenta'
p1
I8
sS'monto'
p2
I750
sS'tipo_movimiento'
p3
S'debito'
p4
sS'tipo'
p5
S'M'
p6
s.(dp0
S'nro_cuenta'
p1
I11
sS'moneda'
p2
S'$'
p3
sS'titular'
p4
S'cliente_11'
p5
sS'tipo_cuenta'
p6
S'corriente'
p7
sS'tipo'
p8
S'A'
p9
s.(dp0
S'nro_cuenta'
p1
I13
sS'monto'
p2
I481
sS'tipo_movimiento'
p3
S'debito'
p4
sS'tipo'
p5
S'M'
p6
s.(dp0
S'nro_cuenta'
p1
I15
sS'tipo'
p2
S'B'
p3
s.(dp0
S'nro_cuenta'
p1
I16
sS'moneda'
p2
S'$'
p3
sS'titular'
p4
S'cliente_16'
p5
sS'tipo_cuenta'
p6
S'debito'
p7
sS'tipo'
p8
S'A'
p9
s.(dp0
S'nro_cuenta'
p1
I19
sS'moneda'
p2
S'$'
p3
sS'titular'
p4
S'cliente_19'
p5
sS'tipo_cuenta'
p6
S'corriente'
p7
sS'tipo'
p8
S'A'
p9
s.(dp0
S'nro_cuenta'
p1
I21
sS'monto'
p2
I653
sS'tipo_movimiento'
p3
S'debito'
p4
sS'tipo'
p5
S'M'
p6
s.(dp0
S'nro_cuenta'
p1
I25
sS'tipo'
p2
S'B'
p3
s.(dp0
S'nro_cuenta'
p1
I32
sS'tipo'
p2
S'B'
p3
s.