(dp0
S'nro_cuenta'
p1
I2
sS'saldo'
p2
I2165
sS'moneda'
p3
S'$'
p4
sS'tipo_cuenta'
p5
S'debito'
p6
sS'titular'
p7
S'cliente_2'
p8
s.(dp0
S'nro_cuenta'
p1
I3
sS'saldo'
p2
I13633
sS'moneda'
p3
S'$'
p4
sS'tipo_cuenta'
p5
S'corriente'
p6
sS'titular'
p7
S'cliente_3'
p8
s.(dp0
S'titular'
p1
S'cliente_4'
p2
sS'nro_cuenta'
p3
I4
sS'tipo_cuenta'
p4
S'corriente'
p5
sS'saldo'
p6
I0
sS'moneda'
p7
S'$'
p8
s.(dp0
S'nro_cuenta'
p1
I5
sS'saldo'
p2
I7156
sS'moneda'
p3
S'$'
p4
sS'tipo_cuenta'
p5
S'corriente'
p6
sS'titular'
p7
S'cliente_5'
p8
s.(dp0
S'nro_cuenta'
p1
I8
sS'saldo'
p2
I6750
sS'moneda'
p3
S'$'
p4
sS'tipo_cuenta'
p5
S'corriente'
p6
sS'titular'
p7
S'cliente_8'
p8
s.(dp0
S'nro_cuenta'
p1
I9
sS'saldo'
p2
I2128
sS'moneda'
p3
S'$'
p4
sS'tipo_cuenta'
p5
S'debito'
p6
sS'titular'
p7
S'cliente_9'
p8
s.(dp0
S'titular'
p1
S'cliente_11'
p2
sS'nro_cuenta'
p3
I11
sS'tipo_cuenta'
p4
S'corriente'
p5
sS'saldo'
p6
I0
sS'moneda'
p7
S'$'
p8
s.(dp0
S'nro_cuenta'
p1
I13
sS'saldo'
p2
I13043
sS'moneda'
p3
S'$'
p4
sS'tipo_cuenta'
p5
S'corriente'
p6
sS'titular'
p7
S'cliente_13'
p8
s.(dp0
S'titular'
p1
S'cliente_16'
p2
sS'nro_cuenta'
p3
I16
sS'tipo_cuenta'
p4
S'debito'
p5
sS'saldo'
p6
I0
sS'moneda'
p7
S'$'
p8
s.(dp0
S'titular'
p1
S'cliente_19'
p2
sS'nro_cuenta'
p3
I19
sS'tipo_cuenta'
p4
S'corriente'
p5
sS'saldo'
p6
I0
sS'moneda'
p7
S'$'
p8
s.(dp0
S'nro_cuenta'
p1
I21
sS'saldo'
p2
I7809
sS'moneda'
p3
S'$'
p4
sS'tipo_cuenta'
p5
S'debito'
p6
sS'titular'
p7
S'cliente_21'
p8
s.