(dp0
S'monto'
p1
I916
sS'nro_factura'
p2
I2020452
sS'cliente'
p3
S'001'
p4
s.(dp0
S'monto'
p1
I772
sS'nro_factura'
p2
I12069115
sS'cliente'
p3
S'002'
p4
s.(dp0
S'monto'
p1
I264
sS'nro_factura'
p2
I14534467
sS'cliente'
p3
S'002'
p4
s.(dp0
S'monto'
p1
I752
sS'nro_factura'
p2
I1424980
sS'cliente'
p3
S'002'
p4
s.(dp0
S'monto'
p1
I424
sS'nro_factura'
p2
I16214863
sS'cliente'
p3
S'002'
p4
s.(dp0
S'monto'
p1
I590
sS'nro_factura'
p2
I6882583
sS'cliente'
p3
S'003'
p4
s.(dp0
S'monto'
p1
I654
sS'nro_factura'
p2
I18817277
sS'cliente'
p3
S'003'
p4
s.(dp0
S'monto'
p1
I211
sS'nro_factura'
p2
I1944327
sS'cliente'
p3
S'003'
p4
s.(dp0
S'monto'
p1
I595
sS'nro_factura'
p2
I16837776
sS'cliente'
p3
S'003'
p4
s.(dp0
S'monto'
p1
I444
sS'nro_factura'
p2
I10145610
sS'cliente'
p3
S'003'
p4
s.(dp0
S'monto'
p1
I393
sS'nro_factura'
p2
I4671025
sS'cliente'
p3
S'004'
p4
s.(dp0
S'monto'
p1
I556
sS'nro_factura'
p2
I13453769
sS'cliente'
p3
S'004'
p4
s.(dp0
S'monto'
p1
I35
sS'nro_factura'
p2
I7126081
sS'cliente'
p3
S'005'
p4
s.(dp0
S'monto'
p1
I367
sS'nro_factura'
p2
I16497082
sS'cliente'
p3
S'005'
p4
s.